target datalayout = "e-m:e-p270:32:32-p271:32:32-p272:64:64-i64:64-i128:128-f80:128-n8:16:32:64-S128"
target triple = "x86_64-pc-linux-gnu"

%struct.Rectangle = type { float, float, float, float }

; Function Attrs: nounwind uwtable
define { <2 x float>, <2 x float> } @GetCollisionRec(<2 x float> %0, <2 x float> %1, <2 x float> %2, <2 x float> %3) #0 {
  %5 = alloca %struct.Rectangle, align 4
  %6 = alloca %struct.Rectangle, align 4
  %7 = alloca %struct.Rectangle, align 4
  %8 = alloca float, align 4
  %9 = alloca float, align 4
  %10 = alloca float, align 4
  %11 = alloca float, align 4
  %12 = alloca float, align 4
  %13 = alloca float, align 4
  %14 = alloca float, align 4
  %15 = alloca float, align 4
  %16 = getelementptr inbounds nuw { <2 x float>, <2 x float> }, ptr %6, i32 0, i32 0
  store <2 x float> %0, ptr %16, align 4
  %17 = getelementptr inbounds nuw { <2 x float>, <2 x float> }, ptr %6, i32 0, i32 1
  store <2 x float> %1, ptr %17, align 4
  %18 = getelementptr inbounds nuw { <2 x float>, <2 x float> }, ptr %7, i32 0, i32 0
  store <2 x float> %2, ptr %18, align 4
  %19 = getelementptr inbounds nuw { <2 x float>, <2 x float> }, ptr %7, i32 0, i32 1
  store <2 x float> %3, ptr %19, align 4
  call void @llvm.memset.p0.i64(ptr align 4 %5, i8 0, i64 16, i1 false)
  call void @llvm.lifetime.start.p0(i64 4, ptr %8) #8
  %20 = getelementptr inbounds nuw %struct.Rectangle, ptr %6, i32 0, i32 0
  %21 = load float, ptr %20, align 4
  %22 = getelementptr inbounds nuw %struct.Rectangle, ptr %7, i32 0, i32 0
  %23 = load float, ptr %22, align 4
  %24 = fcmp ogt float %21, %23
  br i1 %24, label %25, label %28

25:                                               ; preds = %4
  %26 = getelementptr inbounds nuw %struct.Rectangle, ptr %6, i32 0, i32 0
  %27 = load float, ptr %26, align 4
  br label %31

28:                                               ; preds = %4
  %29 = getelementptr inbounds nuw %struct.Rectangle, ptr %7, i32 0, i32 0
  %30 = load float, ptr %29, align 4
  br label %31

31:                                               ; preds = %28, %25
  %32 = phi float [ %27, %25 ], [ %30, %28 ]
  store float %32, ptr %8, align 4
  call void @llvm.lifetime.start.p0(i64 4, ptr %9) #8
  %33 = getelementptr inbounds nuw %struct.Rectangle, ptr %6, i32 0, i32 0
  %34 = load float, ptr %33, align 4
  %35 = getelementptr inbounds nuw %struct.Rectangle, ptr %6, i32 0, i32 2
  %36 = load float, ptr %35, align 4
  %37 = fadd float %34, %36
  store float %37, ptr %9, align 4
  call void @llvm.lifetime.start.p0(i64 4, ptr %10) #8
  %38 = getelementptr inbounds nuw %struct.Rectangle, ptr %7, i32 0, i32 0
  %39 = load float, ptr %38, align 4
  %40 = getelementptr inbounds nuw %struct.Rectangle, ptr %7, i32 0, i32 2
  %41 = load float, ptr %40, align 4
  %42 = fadd float %39, %41
  store float %42, ptr %10, align 4
  call void @llvm.lifetime.start.p0(i64 4, ptr %11) #8
  %43 = load float, ptr %9, align 4
  %44 = load float, ptr %10, align 4
  %45 = fcmp olt float %43, %44
  br i1 %45, label %46, label %48

46:                                               ; preds = %31
  %47 = load float, ptr %9, align 4
  br label %50

48:                                               ; preds = %31
  %49 = load float, ptr %10, align 4
  br label %50

50:                                               ; preds = %48, %46
  %51 = phi float [ %47, %46 ], [ %49, %48 ]
  store float %51, ptr %11, align 4
  call void @llvm.lifetime.start.p0(i64 4, ptr %12) #8
  %52 = getelementptr inbounds nuw %struct.Rectangle, ptr %6, i32 0, i32 1
  %53 = load float, ptr %52, align 4
  %54 = getelementptr inbounds nuw %struct.Rectangle, ptr %7, i32 0, i32 1
  %55 = load float, ptr %54, align 4
  %56 = fcmp ogt float %53, %55
  br i1 %56, label %57, label %60

57:                                               ; preds = %50
  %58 = getelementptr inbounds nuw %struct.Rectangle, ptr %6, i32 0, i32 1
  %59 = load float, ptr %58, align 4
  br label %63

60:                                               ; preds = %50
  %61 = getelementptr inbounds nuw %struct.Rectangle, ptr %7, i32 0, i32 1
  %62 = load float, ptr %61, align 4
  br label %63

63:                                               ; preds = %60, %57
  %64 = phi float [ %59, %57 ], [ %62, %60 ]
  store float %64, ptr %12, align 4
  call void @llvm.lifetime.start.p0(i64 4, ptr %13) #8
  %65 = getelementptr inbounds nuw %struct.Rectangle, ptr %6, i32 0, i32 1
  %66 = load float, ptr %65, align 4
  %67 = getelementptr inbounds nuw %struct.Rectangle, ptr %6, i32 0, i32 3
  %68 = load float, ptr %67, align 4
  %69 = fadd float %66, %68
  store float %69, ptr %13, align 4
  call void @llvm.lifetime.start.p0(i64 4, ptr %14) #8
  %70 = getelementptr inbounds nuw %struct.Rectangle, ptr %7, i32 0, i32 1
  %71 = load float, ptr %70, align 4
  %72 = getelementptr inbounds nuw %struct.Rectangle, ptr %7, i32 0, i32 3
  %73 = load float, ptr %72, align 4
  %74 = fadd float %71, %73
  store float %74, ptr %14, align 4
  call void @llvm.lifetime.start.p0(i64 4, ptr %15) #8
  %75 = load float, ptr %13, align 4
  %76 = load float, ptr %14, align 4
  %77 = fcmp olt float %75, %76
  br i1 %77, label %78, label %80

78:                                               ; preds = %63
  %79 = load float, ptr %13, align 4
  br label %82

80:                                               ; preds = %63
  %81 = load float, ptr %14, align 4
  br label %82

82:                                               ; preds = %80, %78
  %83 = phi float [ %79, %78 ], [ %81, %80 ]
  store float %83, ptr %15, align 4
  %84 = load float, ptr %8, align 4
  %85 = load float, ptr %11, align 4
  %86 = fcmp olt float %84, %85
  br i1 %86, label %87, label %104

87:                                               ; preds = %82
  %88 = load float, ptr %12, align 4
  %89 = load float, ptr %15, align 4
  %90 = fcmp olt float %88, %89
  br i1 %90, label %91, label %104

91:                                               ; preds = %87
  %92 = load float, ptr %8, align 4
  %93 = getelementptr inbounds nuw %struct.Rectangle, ptr %5, i32 0, i32 0
  store float %92, ptr %93, align 4
  %94 = load float, ptr %12, align 4
  %95 = getelementptr inbounds nuw %struct.Rectangle, ptr %5, i32 0, i32 1
  store float %94, ptr %95, align 4
  %96 = load float, ptr %11, align 4
  %97 = load float, ptr %8, align 4
  %98 = fsub float %96, %97
  %99 = getelementptr inbounds nuw %struct.Rectangle, ptr %5, i32 0, i32 2
  store float %98, ptr %99, align 4
  %100 = load float, ptr %15, align 4
  %101 = load float, ptr %12, align 4
  %102 = fsub float %100, %101
  %103 = getelementptr inbounds nuw %struct.Rectangle, ptr %5, i32 0, i32 3
  store float %102, ptr %103, align 4
  br label %104

104:                                              ; preds = %91, %87, %82
  call void @llvm.lifetime.end.p0(i64 4, ptr %15) #8
  call void @llvm.lifetime.end.p0(i64 4, ptr %14) #8
  call void @llvm.lifetime.end.p0(i64 4, ptr %13) #8
  call void @llvm.lifetime.end.p0(i64 4, ptr %12) #8
  call void @llvm.lifetime.end.p0(i64 4, ptr %11) #8
  call void @llvm.lifetime.end.p0(i64 4, ptr %10) #8
  call void @llvm.lifetime.end.p0(i64 4, ptr %9) #8
  call void @llvm.lifetime.end.p0(i64 4, ptr %8) #8
  %105 = load { <2 x float>, <2 x float> }, ptr %5, align 4
  ret { <2 x float>, <2 x float> } %105
}