; Function Attrs: mustprogress nofree norecurse nosync nounwind willreturn memory(none) uwtable
define { <2 x float>, <2 x float> } @GetCollisionRec(<2 x float> %0, <2 x float> %1, <2 x float> %2, <2 x float> %3) local_unnamed_addr #11 {
  %.sroa.026.0.vec.extract = extractelement <2 x float> %0, i64 0
  %.sroa.0.0.vec.extract = extractelement <2 x float> %2, i64 0
  %5 = fcmp ogt float %.sroa.026.0.vec.extract, %.sroa.0.0.vec.extract
  %6 = select i1 %5, float %.sroa.026.0.vec.extract, float %.sroa.0.0.vec.extract
  %7 = fadd <2 x float> %0, %1
  %8 = extractelement <2 x float> %7, i64 0
  %9 = fadd <2 x float> %2, %3
  %10 = extractelement <2 x float> %9, i64 0
  %11 = fcmp olt float %8, %10
  %12 = select i1 %11, float %8, float %10
  %.sroa.026.4.vec.extract = extractelement <2 x float> %0, i64 1
  %.sroa.0.4.vec.extract = extractelement <2 x float> %2, i64 1
  %13 = fcmp ogt float %.sroa.026.4.vec.extract, %.sroa.0.4.vec.extract
  %14 = select i1 %13, float %.sroa.026.4.vec.extract, float %.sroa.0.4.vec.extract
  %15 = fadd <2 x float> %0, %1
  %16 = extractelement <2 x float> %15, i64 1
  %17 = fadd <2 x float> %2, %3
  %18 = extractelement <2 x float> %17, i64 1
  %19 = fcmp olt float %16, %18
  %20 = select i1 %19, float %16, float %18
  %21 = fcmp olt float %6, %12
  %22 = fcmp olt float %14, %20
  %or.cond = select i1 %21, i1 %22, i1 false
  br i1 %or.cond, label %23, label %26

23:                                               ; preds = %4
  %.sroa.036.0.vec.insert = insertelement <2 x float> poison, float %6, i64 0
  %.sroa.036.4.vec.insert = insertelement <2 x float> %.sroa.036.0.vec.insert, float %14, i64 1
  %24 = fsub float %12, %6
  %.sroa.4.8.vec.insert = insertelement <2 x float> poison, float %24, i64 0
  %25 = fsub float %20, %14
  %.sroa.4.12.vec.insert = insertelement <2 x float> %.sroa.4.8.vec.insert, float %25, i64 1
  br label %26

26:                                               ; preds = %23, %4
  %.sroa.036.0 = phi <2 x float> [ %.sroa.036.4.vec.insert, %23 ], [ zeroinitializer, %4 ]
  %.sroa.4.0 = phi <2 x float> [ %.sroa.4.12.vec.insert, %23 ], [ zeroinitializer, %4 ]
  %.fca.0.insert = insertvalue { <2 x float>, <2 x float> } poison, <2 x float> %.sroa.036.0, 0
  %.fca.1.insert = insertvalue { <2 x float>, <2 x float> } %.fca.0.insert, <2 x float> %.sroa.4.0, 1
  ret { <2 x float>, <2 x float> } %.fca.1.insert
}